target datalayout = "e-m:e-p270:32:32-p271:32:32-p272:64:64-i64:64-i128:128-f80:128-n8:16:32:64-S128"
target triple = "x86_64-pc-linux-gnu"

@.str.1 = private unnamed_addr constant [27 x i8] c"../openssl/apps/lib/apps.c\00", align 1
@bio_err = external global ptr, align 8
@.str.138 = private unnamed_addr constant [158 x i8] c"%s: %s name is expected to be in the format /type0=value0/type1=value1/type2=... where characters may be escaped by \\. This name is not in that format: '%s'\0A\00", align 1
@.str.139 = private unnamed_addr constant [19 x i8] c"%s: Out of memory\0A\00", align 1
@.str.140 = private unnamed_addr constant [33 x i8] c"%s: Error copying %s name input\0A\00", align 1
@.str.141 = private unnamed_addr constant [62 x i8] c"%s: Missing '=' after RDN type string '%s' in %s name string\0A\00", align 1
@.str.142 = private unnamed_addr constant [47 x i8] c"%s: Escape character at end of %s name string\0A\00", align 1
@.str.143 = private unnamed_addr constant [53 x i8] c"%s warning: Skipping unknown %s name attribute \22%s\22\0A\00", align 1
@.str.144 = private unnamed_addr constant [113 x i8] c"%s hint: a '+' in a value string needs be escaped using '\\' else a new member of a multi-valued RDN is expected\0A\00", align 1
@.str.145 = private unnamed_addr constant [67 x i8] c"%s warning: No value provided for %s name attribute \22%s\22, skipped\0A\00", align 1
@.str.146 = private unnamed_addr constant [45 x i8] c"%s: Error adding %s name attribute \22/%s=%s\22\0A\00", align 1

; Function Attrs: nounwind uwtable
define dso_local ptr @parse_name(ptr noundef %0, i32 noundef %1, i32 noundef %2, ptr noundef %3) #0 {
  %5 = alloca ptr, align 8
  %6 = alloca ptr, align 8
  %7 = alloca i32, align 4
  %8 = alloca i32, align 4
  %9 = alloca ptr, align 8
  %10 = alloca i32, align 4
  %11 = alloca ptr, align 8
  %12 = alloca ptr, align 8
  %13 = alloca i32, align 4
  %14 = alloca ptr, align 8
  %15 = alloca ptr, align 8
  %16 = alloca ptr, align 8
  %17 = alloca i32, align 4
  %18 = alloca i32, align 4
  store ptr %0, ptr %6, align 8, !tbaa !9
  store i32 %1, ptr %7, align 4, !tbaa !25
  store i32 %2, ptr %8, align 4, !tbaa !25
  store ptr %3, ptr %9, align 8, !tbaa !9
  call void @llvm.lifetime.start.p0(i64 4, ptr %10) #12
  store i32 0, ptr %10, align 4, !tbaa !25
  call void @llvm.lifetime.start.p0(i64 8, ptr %11) #12
  call void @llvm.lifetime.start.p0(i64 8, ptr %12) #12
  %19 = load ptr, ptr %6, align 8, !tbaa !9
  %20 = getelementptr inbounds nuw i8, ptr %19, i32 1
  store ptr %20, ptr %6, align 8, !tbaa !9
  %21 = load i8, ptr %19, align 1, !tbaa !11
  %22 = sext i8 %21 to i32
  %23 = icmp ne i32 %22, 47
  br i1 %23, label %24, label %31

24:                                               ; preds = %4
  %25 = load ptr, ptr @bio_err, align 8, !tbaa !35
  %26 = call ptr @opt_getprog()
  %27 = load ptr, ptr %9, align 8, !tbaa !9
  %28 = load ptr, ptr %6, align 8, !tbaa !9
  %29 = getelementptr inbounds i8, ptr %28, i32 -1
  store ptr %29, ptr %6, align 8, !tbaa !9
  %30 = call i32 (ptr, ptr, ...) @BIO_printf(ptr noundef %25, ptr noundef @.str.138, ptr noundef %26, ptr noundef %27, ptr noundef %29)
  store ptr null, ptr %5, align 8
  store i32 1, ptr %13, align 4
  br label %208

31:                                               ; preds = %4
  %32 = call ptr @X509_NAME_new()
  store ptr %32, ptr %12, align 8, !tbaa !39
  %33 = load ptr, ptr %12, align 8, !tbaa !39
  %34 = icmp eq ptr %33, null
  br i1 %34, label %35, label %39

35:                                               ; preds = %31
  %36 = load ptr, ptr @bio_err, align 8, !tbaa !35
  %37 = call ptr @opt_getprog()
  %38 = call i32 (ptr, ptr, ...) @BIO_printf(ptr noundef %36, ptr noundef @.str.139, ptr noundef %37)
  store ptr null, ptr %5, align 8
  store i32 1, ptr %13, align 4
  br label %208

39:                                               ; preds = %31
  %40 = load ptr, ptr %6, align 8, !tbaa !9
  %41 = call noalias ptr @CRYPTO_strdup(ptr noundef %40, ptr noundef @.str.1, i32 noundef 1963)
  store ptr %41, ptr %11, align 8, !tbaa !9
  %42 = load ptr, ptr %11, align 8, !tbaa !9
  %43 = icmp eq ptr %42, null
  br i1 %43, label %44, label %49

44:                                               ; preds = %39
  %45 = load ptr, ptr @bio_err, align 8, !tbaa !35
  %46 = call ptr @opt_getprog()
  %47 = load ptr, ptr %9, align 8, !tbaa !9
  %48 = call i32 (ptr, ptr, ...) @BIO_printf(ptr noundef %45, ptr noundef @.str.140, ptr noundef %46, ptr noundef %47)
  br label %205

49:                                               ; preds = %39
  br label %50

50:                                               ; preds = %201, %199, %49
  %51 = load ptr, ptr %6, align 8, !tbaa !9
  %52 = load i8, ptr %51, align 1, !tbaa !11
  %53 = sext i8 %52 to i32
  %54 = icmp ne i32 %53, 0
  br i1 %54, label %55, label %202

55:                                               ; preds = %50
  call void @llvm.lifetime.start.p0(i64 8, ptr %14) #12
  %56 = load ptr, ptr %11, align 8, !tbaa !9
  store ptr %56, ptr %14, align 8, !tbaa !9
  call void @llvm.lifetime.start.p0(i64 8, ptr %15) #12
  %57 = load ptr, ptr %14, align 8, !tbaa !9
  store ptr %57, ptr %15, align 8, !tbaa !9
  call void @llvm.lifetime.start.p0(i64 8, ptr %16) #12
  call void @llvm.lifetime.start.p0(i64 4, ptr %17) #12
  call void @llvm.lifetime.start.p0(i64 4, ptr %18) #12
  %58 = load i32, ptr %10, align 4, !tbaa !25
  store i32 %58, ptr %18, align 4, !tbaa !25
  store i32 0, ptr %10, align 4, !tbaa !25
  br label %59

59:                                               ; preds = %71, %55
  %60 = load ptr, ptr %6, align 8, !tbaa !9
  %61 = load i8, ptr %60, align 1, !tbaa !11
  %62 = sext i8 %61 to i32
  %63 = icmp ne i32 %62, 0
  br i1 %63, label %64, label %69

64:                                               ; preds = %59
  %65 = load ptr, ptr %6, align 8, !tbaa !9
  %66 = load i8, ptr %65, align 1, !tbaa !11
  %67 = sext i8 %66 to i32
  %68 = icmp ne i32 %67, 61
  br label %69

69:                                               ; preds = %64, %59
  %70 = phi i1 [ false, %59 ], [ %68, %64 ]
  br i1 %70, label %71, label %77

71:                                               ; preds = %69
  %72 = load ptr, ptr %6, align 8, !tbaa !9
  %73 = getelementptr inbounds nuw i8, ptr %72, i32 1
  store ptr %73, ptr %6, align 8, !tbaa !9
  %74 = load i8, ptr %72, align 1, !tbaa !11
  %75 = load ptr, ptr %14, align 8, !tbaa !9
  %76 = getelementptr inbounds nuw i8, ptr %75, i32 1
  store ptr %76, ptr %14, align 8, !tbaa !9
  store i8 %74, ptr %75, align 1, !tbaa !11
  br label %59, !llvm.loop !140

77:                                               ; preds = %69
  %78 = load ptr, ptr %14, align 8, !tbaa !9
  %79 = getelementptr inbounds nuw i8, ptr %78, i32 1
  store ptr %79, ptr %14, align 8, !tbaa !9
  store i8 0, ptr %78, align 1, !tbaa !11
  %80 = load ptr, ptr %6, align 8, !tbaa !9
  %81 = load i8, ptr %80, align 1, !tbaa !11
  %82 = sext i8 %81 to i32
  %83 = icmp eq i32 %82, 0
  br i1 %83, label %84, label %90

84:                                               ; preds = %77
  %85 = load ptr, ptr @bio_err, align 8, !tbaa !35
  %86 = call ptr @opt_getprog()
  %87 = load ptr, ptr %15, align 8, !tbaa !9
  %88 = load ptr, ptr %9, align 8, !tbaa !9
  %89 = call i32 (ptr, ptr, ...) @BIO_printf(ptr noundef %85, ptr noundef @.str.141, ptr noundef %86, ptr noundef %87, ptr noundef %88)
  store i32 2, ptr %13, align 4
  br label %199

90:                                               ; preds = %77
  %91 = load ptr, ptr %6, align 8, !tbaa !9
  %92 = getelementptr inbounds nuw i8, ptr %91, i32 1
  store ptr %92, ptr %6, align 8, !tbaa !9
  %93 = load ptr, ptr %14, align 8, !tbaa !9
  store ptr %93, ptr %16, align 8, !tbaa !9
  br label %94

94:                                               ; preds = %132, %90
  %95 = load ptr, ptr %6, align 8, !tbaa !9
  %96 = load i8, ptr %95, align 1, !tbaa !11
  %97 = sext i8 %96 to i32
  %98 = icmp ne i32 %97, 0
  br i1 %98, label %99, label %104

99:                                               ; preds = %94
  %100 = load ptr, ptr %6, align 8, !tbaa !9
  %101 = load i8, ptr %100, align 1, !tbaa !11
  %102 = sext i8 %101 to i32
  %103 = icmp ne i32 %102, 47
  br label %104

104:                                              ; preds = %99, %94
  %105 = phi i1 [ false, %94 ], [ %103, %99 ]
  br i1 %105, label %106, label %138

106:                                              ; preds = %104
  %107 = load i32, ptr %8, align 4, !tbaa !25
  %108 = icmp ne i32 %107, 0
  br i1 %108, label %109, label %115

109:                                              ; preds = %106
  %110 = load ptr, ptr %6, align 8, !tbaa !9
  %111 = load i8, ptr %110, align 1, !tbaa !11
  %112 = sext i8 %111 to i32
  %113 = icmp eq i32 %112, 43
  br i1 %113, label %114, label %115

114:                                              ; preds = %109
  store i32 1, ptr %10, align 4, !tbaa !25
  br label %138

115:                                              ; preds = %109, %106
  %116 = load ptr, ptr %6, align 8, !tbaa !9
  %117 = load i8, ptr %116, align 1, !tbaa !11
  %118 = sext i8 %117 to i32
  %119 = icmp eq i32 %118, 92
  br i1 %119, label %120, label %131

120:                                              ; preds = %115
  %121 = load ptr, ptr %6, align 8, !tbaa !9
  %122 = getelementptr inbounds nuw i8, ptr %121, i32 1
  store ptr %122, ptr %6, align 8, !tbaa !9
  %123 = load i8, ptr %122, align 1, !tbaa !11
  %124 = sext i8 %123 to i32
  %125 = icmp eq i32 %124, 0
  br i1 %125, label %126, label %131

126:                                              ; preds = %120
  %127 = load ptr, ptr @bio_err, align 8, !tbaa !35
  %128 = call ptr @opt_getprog()
  %129 = load ptr, ptr %9, align 8, !tbaa !9
  %130 = call i32 (ptr, ptr, ...) @BIO_printf(ptr noundef %127, ptr noundef @.str.142, ptr noundef %128, ptr noundef %129)
  store i32 2, ptr %13, align 4
  br label %199

131:                                              ; preds = %120, %115
  br label %132

132:                                              ; preds = %131
  %133 = load ptr, ptr %6, align 8, !tbaa !9
  %134 = getelementptr inbounds nuw i8, ptr %133, i32 1
  store ptr %134, ptr %6, align 8, !tbaa !9
  %135 = load i8, ptr %133, align 1, !tbaa !11
  %136 = load ptr, ptr %14, align 8, !tbaa !9
  %137 = getelementptr inbounds nuw i8, ptr %136, i32 1
  store ptr %137, ptr %14, align 8, !tbaa !9
  store i8 %135, ptr %136, align 1, !tbaa !11
  br label %94, !llvm.loop !141

138:                                              ; preds = %114, %104
  %139 = load ptr, ptr %14, align 8, !tbaa !9
  %140 = getelementptr inbounds nuw i8, ptr %139, i32 1
  store ptr %140, ptr %14, align 8, !tbaa !9
  store i8 0, ptr %139, align 1, !tbaa !11
  %141 = load ptr, ptr %6, align 8, !tbaa !9
  %142 = load i8, ptr %141, align 1, !tbaa !11
  %143 = sext i8 %142 to i32
  %144 = icmp ne i32 %143, 0
  br i1 %144, label %145, label %148

145:                                              ; preds = %138
  %146 = load ptr, ptr %6, align 8, !tbaa !9
  %147 = getelementptr inbounds nuw i8, ptr %146, i32 1
  store ptr %147, ptr %6, align 8, !tbaa !9
  br label %148

148:                                              ; preds = %145, %138
  %149 = load ptr, ptr %15, align 8, !tbaa !9
  %150 = call i32 @OBJ_txt2nid(ptr noundef %149)
  store i32 %150, ptr %17, align 4, !tbaa !25
  %151 = load i32, ptr %17, align 4, !tbaa !25
  %152 = icmp eq i32 %151, 0
  br i1 %152, label %153, label %166

153:                                              ; preds = %148
  %154 = load ptr, ptr @bio_err, align 8, !tbaa !35
  %155 = call ptr @opt_getprog()
  %156 = load ptr, ptr %9, align 8, !tbaa !9
  %157 = load ptr, ptr %15, align 8, !tbaa !9
  %158 = call i32 (ptr, ptr, ...) @BIO_printf(ptr noundef %154, ptr noundef @.str.143, ptr noundef %155, ptr noundef %156, ptr noundef %157)
  %159 = load i32, ptr %18, align 4, !tbaa !25
  %160 = icmp ne i32 %159, 0
  br i1 %160, label %161, label %165

161:                                              ; preds = %153
  %162 = load ptr, ptr @bio_err, align 8, !tbaa !35
  %163 = call ptr @opt_getprog()
  %164 = call i32 (ptr, ptr, ...) @BIO_printf(ptr noundef %162, ptr noundef @.str.144, ptr noundef %163)
  br label %165

165:                                              ; preds = %161, %153
  store i32 3, ptr %13, align 4
  br label %199, !llvm.loop !142

166:                                              ; preds = %148
  %167 = load ptr, ptr %16, align 8, !tbaa !9
  %168 = load i8, ptr %167, align 1, !tbaa !11
  %169 = zext i8 %168 to i32
  %170 = icmp eq i32 %169, 0
  br i1 %170, label %171, label %177

171:                                              ; preds = %166
  %172 = load ptr, ptr @bio_err, align 8, !tbaa !35
  %173 = call ptr @opt_getprog()
  %174 = load ptr, ptr %9, align 8, !tbaa !9
  %175 = load ptr, ptr %15, align 8, !tbaa !9
  %176 = call i32 (ptr, ptr, ...) @BIO_printf(ptr noundef %172, ptr noundef @.str.145, ptr noundef %173, ptr noundef %174, ptr noundef %175)
  store i32 3, ptr %13, align 4
  br label %199, !llvm.loop !142

177:                                              ; preds = %166
  %178 = load ptr, ptr %12, align 8, !tbaa !39
  %179 = load i32, ptr %17, align 4, !tbaa !25
  %180 = load i32, ptr %7, align 4, !tbaa !25
  %181 = load ptr, ptr %16, align 8, !tbaa !9
  %182 = load ptr, ptr %16, align 8, !tbaa !9
  %183 = call i64 @strlen(ptr noundef %182) #14
  %184 = trunc i64 %183 to i32
  %185 = load i32, ptr %18, align 4, !tbaa !25
  %186 = icmp ne i32 %185, 0
  %187 = select i1 %186, i32 -1, i32 0
  %188 = call i32 @X509_NAME_add_entry_by_NID(ptr noundef %178, i32 noundef %179, i32 noundef %180, ptr noundef %181, i32 noundef %184, i32 noundef -1, i32 noundef %187)
  %189 = icmp ne i32 %188, 0
  br i1 %189, label %198, label %190

190:                                              ; preds = %177
  %191 = load ptr, ptr @bio_err, align 8, !tbaa !35
  call void @ERR_print_errors(ptr noundef %191)
  %192 = load ptr, ptr @bio_err, align 8, !tbaa !35
  %193 = call ptr @opt_getprog()
  %194 = load ptr, ptr %9, align 8, !tbaa !9
  %195 = load ptr, ptr %15, align 8, !tbaa !9
  %196 = load ptr, ptr %16, align 8, !tbaa !9
  %197 = call i32 (ptr, ptr, ...) @BIO_printf(ptr noundef %192, ptr noundef @.str.146, ptr noundef %193, ptr noundef %194, ptr noundef %195, ptr noundef %196)
  store i32 2, ptr %13, align 4
  br label %199

198:                                              ; preds = %177
  store i32 0, ptr %13, align 4
  br label %199

199:                                              ; preds = %190, %126, %84, %198, %171, %165
  call void @llvm.lifetime.end.p0(i64 4, ptr %18) #12
  call void @llvm.lifetime.end.p0(i64 4, ptr %17) #12
  call void @llvm.lifetime.end.p0(i64 8, ptr %16) #12
  call void @llvm.lifetime.end.p0(i64 8, ptr %15) #12
  call void @llvm.lifetime.end.p0(i64 8, ptr %14) #12
  %200 = load i32, ptr %13, align 4
  switch i32 %200, label %208 [
    i32 0, label %201
    i32 3, label %50
    i32 2, label %205
  ]

201:                                              ; preds = %199
  br label %50, !llvm.loop !142

202:                                              ; preds = %50
  %203 = load ptr, ptr %11, align 8, !tbaa !9
  call void @CRYPTO_free(ptr noundef %203, ptr noundef @.str.1, i32 noundef 2041)
  %204 = load ptr, ptr %12, align 8, !tbaa !39
  store ptr %204, ptr %5, align 8
  store i32 1, ptr %13, align 4
  br label %208

205:                                              ; preds = %199, %44
  %206 = load ptr, ptr %12, align 8, !tbaa !39
  call void @X509_NAME_free(ptr noundef %206)
  %207 = load ptr, ptr %11, align 8, !tbaa !9
  call void @CRYPTO_free(ptr noundef %207, ptr noundef @.str.1, i32 noundef 2046)
  store ptr null, ptr %5, align 8
  store i32 1, ptr %13, align 4
  br label %208

208:                                              ; preds = %205, %202, %199, %35, %24
  call void @llvm.lifetime.end.p0(i64 8, ptr %12) #12
  call void @llvm.lifetime.end.p0(i64 8, ptr %11) #12
  call void @llvm.lifetime.end.p0(i64 4, ptr %10) #12
  %209 = load ptr, ptr %5, align 8
  ret ptr %209
}