; Function Attrs: nounwind uwtable
define dso_local ptr @parse_name(ptr noundef %0, i32 noundef %1, i32 noundef %2, ptr noundef %3) local_unnamed_addr #0 {
  %5 = getelementptr inbounds nuw i8, ptr %0, i64 1
  %6 = load i8, ptr %0, align 1, !tbaa !13
  %.not = icmp eq i8 %6, 47
  br i1 %.not, label %11, label %7

7:                                                ; preds = %4
  %8 = load ptr, ptr @bio_err, align 8, !tbaa !26
  %9 = tail call ptr @opt_getprog() #27
  %10 = tail call i32 (ptr, ptr, ...) @BIO_printf(ptr noundef %8, ptr noundef nonnull @.str.138, ptr noundef %9, ptr noundef %3, ptr noundef nonnull %0) #27
  br label %89

11:                                               ; preds = %4
  %12 = tail call ptr @X509_NAME_new() #27
  %13 = icmp eq ptr %12, null
  br i1 %13, label %14, label %18

14:                                               ; preds = %11
  %15 = load ptr, ptr @bio_err, align 8, !tbaa !26
  %16 = tail call ptr @opt_getprog() #27
  %17 = tail call i32 (ptr, ptr, ...) @BIO_printf(ptr noundef %15, ptr noundef nonnull @.str.139, ptr noundef %16) #27
  br label %89

18:                                               ; preds = %11
  %19 = tail call noalias ptr @CRYPTO_strdup(ptr noundef nonnull %5, ptr noundef nonnull @.str.1, i32 noundef 1963) #27
  %20 = icmp eq ptr %19, null
  br i1 %20, label %22, label %.preheader82

.preheader82:                                     ; preds = %18
  %21 = load i8, ptr %5, align 1, !tbaa !13
  %.not6891 = icmp eq i8 %21, 0
  br i1 %.not6891, label %._crit_edge, label %.preheader81.lr.ph

.preheader81.lr.ph:                               ; preds = %.preheader82
  %.not73.not = icmp eq i32 %2, 0
  br label %.preheader81

22:                                               ; preds = %18
  %23 = load ptr, ptr @bio_err, align 8, !tbaa !26
  %24 = tail call ptr @opt_getprog() #27
  %25 = tail call i32 (ptr, ptr, ...) @BIO_printf(ptr noundef %23, ptr noundef nonnull @.str.140, ptr noundef %24, ptr noundef %3) #27
  br label %.thread

.preheader81:                                     ; preds = %.preheader81.lr.ph, %87
  %26 = phi i8 [ %21, %.preheader81.lr.ph ], [ %88, %87 ]
  %.05793 = phi ptr [ %5, %.preheader81.lr.ph ], [ %spec.select, %87 ]
  %.05892 = phi i32 [ 0, %.preheader81.lr.ph ], [ %.us-phi90, %87 ]
  br label %27

27:                                               ; preds = %.preheader81, %29
  %28 = phi i8 [ %.pr, %29 ], [ %26, %.preheader81 ]
  %.062 = phi ptr [ %31, %29 ], [ %19, %.preheader81 ]
  %.1 = phi ptr [ %30, %29 ], [ %.05793, %.preheader81 ]
  switch i8 %28, label %29 [
    i8 0, label %.critedge
    i8 61, label %.critedge
  ]

29:                                               ; preds = %27
  %30 = getelementptr inbounds nuw i8, ptr %.1, i64 1
  %31 = getelementptr inbounds nuw i8, ptr %.062, i64 1
  store i8 %28, ptr %.062, align 1, !tbaa !13
  %.pr = load i8, ptr %30, align 1, !tbaa !13
  br label %27, !llvm.loop !87

.critedge:                                        ; preds = %27, %27
  %32 = getelementptr inbounds nuw i8, ptr %.062, i64 1
  store i8 0, ptr %.062, align 1, !tbaa !13
  %33 = load i8, ptr %.1, align 1, !tbaa !13
  %34 = icmp eq i8 %33, 0
  br i1 %34, label %43, label %.preheader

.preheader:                                       ; preds = %.critedge
  br i1 %.not73.not, label %.preheader.split.us, label %.preheader.split

.preheader.split.us:                              ; preds = %.preheader, %40
  %.163.us = phi ptr [ %42, %40 ], [ %32, %.preheader ]
  %.1.pn.us = phi ptr [ %.4.us, %40 ], [ %.1, %.preheader ]
  %.3.us = getelementptr inbounds nuw i8, ptr %.1.pn.us, i64 1
  %35 = load i8, ptr %.3.us, align 1, !tbaa !13
  switch i8 %35, label %40 [
    i8 0, label %.critedge2
    i8 47, label %.critedge2
    i8 92, label %36
  ]

36:                                               ; preds = %.preheader.split.us
  %37 = getelementptr inbounds nuw i8, ptr %.1.pn.us, i64 2
  %38 = load i8, ptr %37, align 1, !tbaa !13
  %39 = icmp eq i8 %38, 0
  br i1 %39, label %.split.us, label %40

40:                                               ; preds = %.preheader.split.us, %36
  %41 = phi i8 [ %38, %36 ], [ %35, %.preheader.split.us ]
  %.4.us = phi ptr [ %37, %36 ], [ %.3.us, %.preheader.split.us ]
  %42 = getelementptr inbounds nuw i8, ptr %.163.us, i64 1
  store i8 %41, ptr %.163.us, align 1, !tbaa !13
  br label %.preheader.split.us, !llvm.loop !88

43:                                               ; preds = %.critedge
  %44 = load ptr, ptr @bio_err, align 8, !tbaa !26
  %45 = tail call ptr @opt_getprog() #27
  %46 = tail call i32 (ptr, ptr, ...) @BIO_printf(ptr noundef %44, ptr noundef nonnull @.str.141, ptr noundef %45, ptr noundef nonnull %19, ptr noundef %3) #27
  br label %.thread

.preheader.split:                                 ; preds = %.preheader, %55
  %.163 = phi ptr [ %57, %55 ], [ %32, %.preheader ]
  %.1.pn = phi ptr [ %.4, %55 ], [ %.1, %.preheader ]
  %.3 = getelementptr inbounds nuw i8, ptr %.1.pn, i64 1
  %47 = load i8, ptr %.3, align 1, !tbaa !13
  switch i8 %47, label %55 [
    i8 0, label %.critedge2
    i8 47, label %.critedge2
    i8 43, label %.critedge2.loopexit139
    i8 92, label %48
  ]

48:                                               ; preds = %.preheader.split
  %49 = getelementptr inbounds nuw i8, ptr %.1.pn, i64 2
  %50 = load i8, ptr %49, align 1, !tbaa !13
  %51 = icmp eq i8 %50, 0
  br i1 %51, label %.split.us, label %55

.split.us:                                        ; preds = %48, %36
  %52 = load ptr, ptr @bio_err, align 8, !tbaa !26
  %53 = tail call ptr @opt_getprog() #27
  %54 = tail call i32 (ptr, ptr, ...) @BIO_printf(ptr noundef %52, ptr noundef nonnull @.str.142, ptr noundef %53, ptr noundef %3) #27
  br label %.thread

55:                                               ; preds = %.preheader.split, %48
  %56 = phi i8 [ %50, %48 ], [ %47, %.preheader.split ]
  %.4 = phi ptr [ %49, %48 ], [ %.3, %.preheader.split ]
  %57 = getelementptr inbounds nuw i8, ptr %.163, i64 1
  store i8 %56, ptr %.163, align 1, !tbaa !13
  br label %.preheader.split, !llvm.loop !88

.critedge2.loopexit139:                           ; preds = %.preheader.split
  br label %.critedge2

.critedge2:                                       ; preds = %.preheader.split.us, %.preheader.split.us, %.preheader.split, %.preheader.split, %.critedge2.loopexit139
  %.us-phi = phi ptr [ %.163, %.critedge2.loopexit139 ], [ %.163, %.preheader.split ], [ %.163, %.preheader.split ], [ %.163.us, %.preheader.split.us ], [ %.163.us, %.preheader.split.us ]
  %.us-phi88 = phi ptr [ %.1.pn, %.critedge2.loopexit139 ], [ %.1.pn, %.preheader.split ], [ %.1.pn, %.preheader.split ], [ %.1.pn.us, %.preheader.split.us ], [ %.1.pn.us, %.preheader.split.us ]
  %.us-phi89 = phi ptr [ %.3, %.critedge2.loopexit139 ], [ %.3, %.preheader.split ], [ %.3, %.preheader.split ], [ %.3.us, %.preheader.split.us ], [ %.3.us, %.preheader.split.us ]
  %.us-phi90 = phi i32 [ 1, %.critedge2.loopexit139 ], [ 0, %.preheader.split ], [ 0, %.preheader.split ], [ 0, %.preheader.split.us ], [ 0, %.preheader.split.us ]
  store i8 0, ptr %.us-phi, align 1, !tbaa !13
  %58 = load i8, ptr %.us-phi89, align 1, !tbaa !13
  %.not74 = icmp eq i8 %58, 0
  %59 = getelementptr inbounds nuw i8, ptr %.us-phi88, i64 2
  %spec.select = select i1 %.not74, ptr %.us-phi89, ptr %59
  %60 = tail call i32 @OBJ_txt2nid(ptr noundef nonnull %19) #27
  %61 = icmp eq i32 %60, 0
  br i1 %61, label %62, label %70

62:                                               ; preds = %.critedge2
  %63 = load ptr, ptr @bio_err, align 8, !tbaa !26
  %64 = tail call ptr @opt_getprog() #27
  %65 = tail call i32 (ptr, ptr, ...) @BIO_printf(ptr noundef %63, ptr noundef nonnull @.str.143, ptr noundef %64, ptr noundef %3, ptr noundef nonnull %19) #27
  %.not77 = icmp eq i32 %.05892, 0
  br i1 %.not77, label %87, label %66, !llvm.loop !89

66:                                               ; preds = %62
  %67 = load ptr, ptr @bio_err, align 8, !tbaa !26
  %68 = tail call ptr @opt_getprog() #27
  %69 = tail call i32 (ptr, ptr, ...) @BIO_printf(ptr noundef %67, ptr noundef nonnull @.str.144, ptr noundef %68) #27
  br label %87, !llvm.loop !89

70:                                               ; preds = %.critedge2
  %71 = load i8, ptr %32, align 1, !tbaa !13
  %72 = icmp eq i8 %71, 0
  br i1 %72, label %73, label %77

73:                                               ; preds = %70
  %74 = load ptr, ptr @bio_err, align 8, !tbaa !26
  %75 = tail call ptr @opt_getprog() #27
  %76 = tail call i32 (ptr, ptr, ...) @BIO_printf(ptr noundef %74, ptr noundef nonnull @.str.145, ptr noundef %75, ptr noundef %3, ptr noundef nonnull %19) #27
  br label %87, !llvm.loop !89

77:                                               ; preds = %70
  %78 = tail call i64 @strlen(ptr noundef nonnull dereferenceable(1) %32) #29
  %79 = trunc i64 %78 to i32
  %.not75 = icmp ne i32 %.05892, 0
  %80 = sext i1 %.not75 to i32
  %81 = tail call i32 @X509_NAME_add_entry_by_NID(ptr noundef nonnull %12, i32 noundef %60, i32 noundef %1, ptr noundef nonnull %32, i32 noundef %79, i32 noundef -1, i32 noundef %80) #27
  %.not76 = icmp eq i32 %81, 0
  br i1 %.not76, label %82, label %87

82:                                               ; preds = %77
  %83 = load ptr, ptr @bio_err, align 8, !tbaa !26
  tail call void @ERR_print_errors(ptr noundef %83) #27
  %84 = load ptr, ptr @bio_err, align 8, !tbaa !26
  %85 = tail call ptr @opt_getprog() #27
  %86 = tail call i32 (ptr, ptr, ...) @BIO_printf(ptr noundef %84, ptr noundef nonnull @.str.146, ptr noundef %85, ptr noundef %3, ptr noundef nonnull %19, ptr noundef nonnull %32) #27
  br label %.thread

87:                                               ; preds = %77, %62, %66, %73
  %88 = load i8, ptr %spec.select, align 1, !tbaa !13
  %.not68 = icmp eq i8 %88, 0
  br i1 %.not68, label %._crit_edge, label %.preheader81

._crit_edge:                                      ; preds = %87, %.preheader82
  tail call void @CRYPTO_free(ptr noundef nonnull %19, ptr noundef nonnull @.str.1, i32 noundef 2041) #27
  br label %89

.thread:                                          ; preds = %.split.us, %82, %43, %22
  tail call void @X509_NAME_free(ptr noundef nonnull %12) #27
  tail call void @CRYPTO_free(ptr noundef %19, ptr noundef nonnull @.str.1, i32 noundef 2046) #27
  br label %89

89:                                               ; preds = %.thread, %._crit_edge, %14, %7
  %.0 = phi ptr [ null, %7 ], [ null, %14 ], [ null, %.thread ], [ %12, %._crit_edge ]
  ret ptr %.0
}